target datalayout = "e-m:e-p270:32:32-p271:32:32-p272:64:64-i64:64-i128:128-f80:128-n8:16:32:64-S128"
target triple = "x86_64-pc-linux-gnu"

%struct.AVFilterContext = type { ptr, ptr, ptr, ptr, ptr, i32, ptr, ptr, i32, ptr, ptr, i32, i32, ptr, ptr, ptr, ptr, i32, ptr, i32, i32 }
%struct.ShufflePixelsContext = type { ptr, i32, i32, i32, i32, i64, i32, i32, [4 x i32], [4 x i32], [4 x i32], i32, ptr, ptr, %struct.AVLFG, ptr }
%struct.AVLFG = type { [64 x i32], i32 }
%struct.ThreadData = type { ptr, ptr }
%struct.AVChannelLayout = type { i32, i32, %union.anon.1, ptr }
%union.anon.1 = type { i64 }
%struct.AVRational = type { i32, i32 }
%struct.AVFrame = type { [8 x ptr], [8 x i32], ptr, i32, i32, i32, i32, i32, %struct.AVRational, i64, i64, %struct.AVRational, i32, ptr, i32, i32, [8 x ptr], ptr, i32, ptr, i32, i32, i32, i32, i32, i32, i32, i64, ptr, i32, ptr, ptr, i64, i64, i64, i64, ptr, %struct.AVChannelLayout, i64 }

; Function Attrs: nounwind uwtable
define internal i32 @shuffle_horizontal8(ptr noundef %0, ptr noundef %1, i32 noundef %2, i32 noundef %3) #1 {
  %5 = alloca ptr, align 8
  %6 = alloca ptr, align 8
  %7 = alloca i32, align 4
  %8 = alloca i32, align 4
  %9 = alloca ptr, align 8
  %10 = alloca ptr, align 8
  %11 = alloca ptr, align 8
  %12 = alloca ptr, align 8
  %13 = alloca i32, align 4
  %14 = alloca i32, align 4
  %15 = alloca i32, align 4
  %16 = alloca i32, align 4
  %17 = alloca ptr, align 8
  %18 = alloca ptr, align 8
  %19 = alloca ptr, align 8
  %20 = alloca i32, align 4
  %21 = alloca i32, align 4
  store ptr %0, ptr %5, align 8, !tbaa !4
  store ptr %1, ptr %6, align 8, !tbaa !73
  store i32 %2, ptr %7, align 4, !tbaa !44
  store i32 %3, ptr %8, align 4, !tbaa !44
  call void @llvm.lifetime.start.p0(i64 8, ptr %9) #9
  %22 = load ptr, ptr %5, align 8, !tbaa !4
  %23 = getelementptr inbounds nuw %struct.AVFilterContext, ptr %22, i32 0, i32 9
  %24 = load ptr, ptr %23, align 8, !tbaa !9
  store ptr %24, ptr %9, align 8, !tbaa !22
  call void @llvm.lifetime.start.p0(i64 8, ptr %10) #9
  %25 = load ptr, ptr %6, align 8, !tbaa !73
  store ptr %25, ptr %10, align 8, !tbaa !74
  call void @llvm.lifetime.start.p0(i64 8, ptr %11) #9
  %26 = load ptr, ptr %10, align 8, !tbaa !74
  %27 = getelementptr inbounds nuw %struct.ThreadData, ptr %26, i32 0, i32 0
  %28 = load ptr, ptr %27, align 8, !tbaa !47
  store ptr %28, ptr %11, align 8, !tbaa !26
  call void @llvm.lifetime.start.p0(i64 8, ptr %12) #9
  %29 = load ptr, ptr %10, align 8, !tbaa !74
  %30 = getelementptr inbounds nuw %struct.ThreadData, ptr %29, i32 0, i32 1
  %31 = load ptr, ptr %30, align 8, !tbaa !45
  store ptr %31, ptr %12, align 8, !tbaa !26
  call void @llvm.lifetime.start.p0(i64 4, ptr %13) #9
  store i32 0, ptr %13, align 4, !tbaa !44
  br label %32

32:                                               ; preds = %155, %4
  %33 = load i32, ptr %13, align 4, !tbaa !44
  %34 = load ptr, ptr %9, align 8, !tbaa !22
  %35 = getelementptr inbounds nuw %struct.ShufflePixelsContext, ptr %34, i32 0, i32 7
  %36 = load i32, ptr %35, align 4, !tbaa !58
  %37 = icmp slt i32 %33, %36
  br i1 %37, label %39, label %38

38:                                               ; preds = %32
  store i32 2, ptr %14, align 4
  call void @llvm.lifetime.end.p0(i64 4, ptr %13) #9
  br label %158

39:                                               ; preds = %32
  call void @llvm.lifetime.start.p0(i64 4, ptr %15) #9
  %40 = load ptr, ptr %9, align 8, !tbaa !22
  %41 = getelementptr inbounds nuw %struct.ShufflePixelsContext, ptr %40, i32 0, i32 10
  %42 = load i32, ptr %13, align 4, !tbaa !44
  %43 = sext i32 %42 to i64
  %44 = getelementptr inbounds [4 x i32], ptr %41, i64 0, i64 %43
  %45 = load i32, ptr %44, align 4, !tbaa !44
  %46 = load i32, ptr %7, align 4, !tbaa !44
  %47 = mul nsw i32 %45, %46
  %48 = load i32, ptr %8, align 4, !tbaa !44
  %49 = sdiv i32 %47, %48
  store i32 %49, ptr %15, align 4, !tbaa !44
  call void @llvm.lifetime.start.p0(i64 4, ptr %16) #9
  %50 = load ptr, ptr %9, align 8, !tbaa !22
  %51 = getelementptr inbounds nuw %struct.ShufflePixelsContext, ptr %50, i32 0, i32 10
  %52 = load i32, ptr %13, align 4, !tbaa !44
  %53 = sext i32 %52 to i64
  %54 = getelementptr inbounds [4 x i32], ptr %51, i64 0, i64 %53
  %55 = load i32, ptr %54, align 4, !tbaa !44
  %56 = load i32, ptr %7, align 4, !tbaa !44
  %57 = add nsw i32 %56, 1
  %58 = mul nsw i32 %55, %57
  %59 = load i32, ptr %8, align 4, !tbaa !44
  %60 = sdiv i32 %58, %59
  store i32 %60, ptr %16, align 4, !tbaa !44
  call void @llvm.lifetime.start.p0(i64 8, ptr %17) #9
  %61 = load ptr, ptr %12, align 8, !tbaa !26
  %62 = getelementptr inbounds nuw %struct.AVFrame, ptr %61, i32 0, i32 0
  %63 = load i32, ptr %13, align 4, !tbaa !44
  %64 = sext i32 %63 to i64
  %65 = getelementptr inbounds [8 x ptr], ptr %62, i64 0, i64 %64
  %66 = load ptr, ptr %65, align 8, !tbaa !76
  %67 = load i32, ptr %15, align 4, !tbaa !44
  %68 = load ptr, ptr %12, align 8, !tbaa !26
  %69 = getelementptr inbounds nuw %struct.AVFrame, ptr %68, i32 0, i32 1
  %70 = load i32, ptr %13, align 4, !tbaa !44
  %71 = sext i32 %70 to i64
  %72 = getelementptr inbounds [8 x i32], ptr %69, i64 0, i64 %71
  %73 = load i32, ptr %72, align 4, !tbaa !44
  %74 = mul nsw i32 %67, %73
  %75 = sext i32 %74 to i64
  %76 = getelementptr inbounds i8, ptr %66, i64 %75
  store ptr %76, ptr %17, align 8, !tbaa !76
  call void @llvm.lifetime.start.p0(i64 8, ptr %18) #9
  %77 = load ptr, ptr %11, align 8, !tbaa !26
  %78 = getelementptr inbounds nuw %struct.AVFrame, ptr %77, i32 0, i32 0
  %79 = load i32, ptr %13, align 4, !tbaa !44
  %80 = sext i32 %79 to i64
  %81 = getelementptr inbounds [8 x ptr], ptr %78, i64 0, i64 %80
  %82 = load ptr, ptr %81, align 8, !tbaa !76
  %83 = load i32, ptr %15, align 4, !tbaa !44
  %84 = load ptr, ptr %11, align 8, !tbaa !26
  %85 = getelementptr inbounds nuw %struct.AVFrame, ptr %84, i32 0, i32 1
  %86 = load i32, ptr %13, align 4, !tbaa !44
  %87 = sext i32 %86 to i64
  %88 = getelementptr inbounds [8 x i32], ptr %85, i64 0, i64 %87
  %89 = load i32, ptr %88, align 4, !tbaa !44
  %90 = mul nsw i32 %83, %89
  %91 = sext i32 %90 to i64
  %92 = getelementptr inbounds i8, ptr %82, i64 %91
  store ptr %92, ptr %18, align 8, !tbaa !76
  call void @llvm.lifetime.start.p0(i64 8, ptr %19) #9
  %93 = load ptr, ptr %9, align 8, !tbaa !22
  %94 = getelementptr inbounds nuw %struct.ShufflePixelsContext, ptr %93, i32 0, i32 13
  %95 = load ptr, ptr %94, align 8, !tbaa !67
  store ptr %95, ptr %19, align 8, !tbaa !77
  call void @llvm.lifetime.start.p0(i64 4, ptr %20) #9
  %96 = load i32, ptr %15, align 4, !tbaa !44
  store i32 %96, ptr %20, align 4, !tbaa !44
  br label %97

97:                                               ; preds = %151, %39
  %98 = load i32, ptr %20, align 4, !tbaa !44
  %99 = load i32, ptr %16, align 4, !tbaa !44
  %100 = icmp slt i32 %98, %99
  br i1 %100, label %102, label %101

101:                                              ; preds = %97
  store i32 5, ptr %14, align 4
  call void @llvm.lifetime.end.p0(i64 4, ptr %20) #9
  br label %154

102:                                              ; preds = %97
  call void @llvm.lifetime.start.p0(i64 4, ptr %21) #9
  store i32 0, ptr %21, align 4, !tbaa !44
  br label %103

103:                                              ; preds = %127, %102
  %104 = load i32, ptr %21, align 4, !tbaa !44
  %105 = load ptr, ptr %9, align 8, !tbaa !22
  %106 = getelementptr inbounds nuw %struct.ShufflePixelsContext, ptr %105, i32 0, i32 9
  %107 = load i32, ptr %13, align 4, !tbaa !44
  %108 = sext i32 %107 to i64
  %109 = getelementptr inbounds [4 x i32], ptr %106, i64 0, i64 %108
  %110 = load i32, ptr %109, align 4, !tbaa !44
  %111 = icmp slt i32 %104, %110
  br i1 %111, label %113, label %112

112:                                              ; preds = %103
  store i32 8, ptr %14, align 4
  call void @llvm.lifetime.end.p0(i64 4, ptr %21) #9
  br label %130

113:                                              ; preds = %103
  %114 = load ptr, ptr %18, align 8, !tbaa !76
  %115 = load ptr, ptr %19, align 8, !tbaa !77
  %116 = load i32, ptr %21, align 4, !tbaa !44
  %117 = sext i32 %116 to i64
  %118 = getelementptr inbounds i32, ptr %115, i64 %117
  %119 = load i32, ptr %118, align 4, !tbaa !44
  %120 = sext i32 %119 to i64
  %121 = getelementptr inbounds i8, ptr %114, i64 %120
  %122 = load i8, ptr %121, align 1, !tbaa !78
  %123 = load ptr, ptr %17, align 8, !tbaa !76
  %124 = load i32, ptr %21, align 4, !tbaa !44
  %125 = sext i32 %124 to i64
  %126 = getelementptr inbounds i8, ptr %123, i64 %125
  store i8 %122, ptr %126, align 1, !tbaa !78
  br label %127

127:                                              ; preds = %113
  %128 = load i32, ptr %21, align 4, !tbaa !44
  %129 = add nsw i32 %128, 1
  store i32 %129, ptr %21, align 4, !tbaa !44
  br label %103, !llvm.loop !79

130:                                              ; preds = %112
  %131 = load ptr, ptr %12, align 8, !tbaa !26
  %132 = getelementptr inbounds nuw %struct.AVFrame, ptr %131, i32 0, i32 1
  %133 = load i32, ptr %13, align 4, !tbaa !44
  %134 = sext i32 %133 to i64
  %135 = getelementptr inbounds [8 x i32], ptr %132, i64 0, i64 %134
  %136 = load i32, ptr %135, align 4, !tbaa !44
  %137 = sext i32 %136 to i64
  %138 = udiv i64 %137, 1
  %139 = load ptr, ptr %17, align 8, !tbaa !76
  %140 = getelementptr inbounds nuw i8, ptr %139, i64 %138
  store ptr %140, ptr %17, align 8, !tbaa !76
  %141 = load ptr, ptr %11, align 8, !tbaa !26
  %142 = getelementptr inbounds nuw %struct.AVFrame, ptr %141, i32 0, i32 1
  %143 = load i32, ptr %13, align 4, !tbaa !44
  %144 = sext i32 %143 to i64
  %145 = getelementptr inbounds [8 x i32], ptr %142, i64 0, i64 %144
  %146 = load i32, ptr %145, align 4, !tbaa !44
  %147 = sext i32 %146 to i64
  %148 = udiv i64 %147, 1
  %149 = load ptr, ptr %18, align 8, !tbaa !76
  %150 = getelementptr inbounds nuw i8, ptr %149, i64 %148
  store ptr %150, ptr %18, align 8, !tbaa !76
  br label %151

151:                                              ; preds = %130
  %152 = load i32, ptr %20, align 4, !tbaa !44
  %153 = add nsw i32 %152, 1
  store i32 %153, ptr %20, align 4, !tbaa !44
  br label %97, !llvm.loop !81

154:                                              ; preds = %101
  call void @llvm.lifetime.end.p0(i64 8, ptr %19) #9
  call void @llvm.lifetime.end.p0(i64 8, ptr %18) #9
  call void @llvm.lifetime.end.p0(i64 8, ptr %17) #9
  call void @llvm.lifetime.end.p0(i64 4, ptr %16) #9
  call void @llvm.lifetime.end.p0(i64 4, ptr %15) #9
  br label %155

155:                                              ; preds = %154
  %156 = load i32, ptr %13, align 4, !tbaa !44
  %157 = add nsw i32 %156, 1
  store i32 %157, ptr %13, align 4, !tbaa !44
  br label %32, !llvm.loop !82

158:                                              ; preds = %38
  store i32 1, ptr %14, align 4
  call void @llvm.lifetime.end.p0(i64 8, ptr %12) #9
  call void @llvm.lifetime.end.p0(i64 8, ptr %11) #9
  call void @llvm.lifetime.end.p0(i64 8, ptr %10) #9
  call void @llvm.lifetime.end.p0(i64 8, ptr %9) #9
  ret i32 0
}