; Function Attrs: nofree norecurse nosync nounwind memory(readwrite, inaccessiblemem: none) uwtable
define internal noundef i32 @shuffle_horizontal8(ptr noundef readonly captures(none) %0, ptr noundef readonly captures(none) %1, i32 noundef %2, i32 noundef %3) #5 {
  %5 = getelementptr inbounds nuw i8, ptr %0, i64 72
  %6 = load ptr, ptr %5, align 8, !tbaa !4
  %7 = load ptr, ptr %1, align 8, !tbaa !43
  %8 = getelementptr inbounds nuw i8, ptr %1, i64 8
  %9 = load ptr, ptr %8, align 8, !tbaa !41
  %10 = getelementptr inbounds nuw i8, ptr %6, i64 36
  %11 = load i32, ptr %10, align 4, !tbaa !53
  %12 = icmp sgt i32 %11, 0
  br i1 %12, label %.lr.ph55, label %._crit_edge56

.lr.ph55:                                         ; preds = %4
  %13 = getelementptr inbounds nuw i8, ptr %6, i64 72
  %14 = add nsw i32 %2, 1
  %15 = getelementptr inbounds nuw i8, ptr %9, i64 64
  %16 = getelementptr inbounds nuw i8, ptr %7, i64 64
  %17 = getelementptr inbounds nuw i8, ptr %6, i64 104
  %18 = getelementptr inbounds nuw i8, ptr %6, i64 56
  br label %19

._crit_edge56:                                    ; preds = %._crit_edge52, %4
  ret i32 0

19:                                               ; preds = %.lr.ph55, %._crit_edge52
  %20 = phi i32 [ %11, %.lr.ph55 ], [ %50, %._crit_edge52 ]
  %indvars.iv59 = phi i64 [ 0, %.lr.ph55 ], [ %indvars.iv.next60, %._crit_edge52 ]
  %21 = getelementptr inbounds nuw [4 x i32], ptr %13, i64 0, i64 %indvars.iv59
  %22 = load i32, ptr %21, align 4, !tbaa !48
  %23 = mul nsw i32 %22, %2
  %24 = sdiv i32 %23, %3
  %25 = mul nsw i32 %22, %14
  %26 = sdiv i32 %25, %3
  %27 = getelementptr inbounds nuw [8 x i32], ptr %15, i64 0, i64 %indvars.iv59
  %28 = getelementptr inbounds nuw [8 x i32], ptr %16, i64 0, i64 %indvars.iv59
  %29 = load ptr, ptr %17, align 8, !tbaa !62
  %30 = icmp slt i32 %24, %26
  br i1 %30, label %.preheader.lr.ph, label %._crit_edge52

.preheader.lr.ph:                                 ; preds = %19
  %31 = getelementptr inbounds nuw [4 x i32], ptr %18, i64 0, i64 %indvars.iv59
  %32 = load i32, ptr %31, align 4, !tbaa !48
  %33 = icmp sgt i32 %32, 0
  br i1 %33, label %.preheader.preheader, label %._crit_edge52

.preheader.preheader:                             ; preds = %.preheader.lr.ph
  %34 = getelementptr inbounds nuw [8 x ptr], ptr %7, i64 0, i64 %indvars.iv59
  %35 = load ptr, ptr %34, align 8, !tbaa !84
  %36 = load i32, ptr %28, align 4, !tbaa !48
  %37 = mul nsw i32 %36, %24
  %38 = sext i32 %37 to i64
  %39 = getelementptr inbounds i8, ptr %35, i64 %38
  %40 = getelementptr inbounds nuw [8 x ptr], ptr %9, i64 0, i64 %indvars.iv59
  %41 = load ptr, ptr %40, align 8, !tbaa !84
  %42 = load i32, ptr %27, align 4, !tbaa !48
  %43 = mul nsw i32 %42, %24
  %44 = sext i32 %43 to i64
  %45 = getelementptr inbounds i8, ptr %41, i64 %44
  br label %.preheader

.preheader:                                       ; preds = %.preheader.preheader, %._crit_edge
  %46 = phi i32 [ %53, %._crit_edge ], [ %36, %.preheader.preheader ]
  %47 = phi i32 [ %54, %._crit_edge ], [ %42, %.preheader.preheader ]
  %48 = phi i32 [ %55, %._crit_edge ], [ %32, %.preheader.preheader ]
  %.04451 = phi i32 [ %60, %._crit_edge ], [ %24, %.preheader.preheader ]
  %.04650 = phi ptr [ %59, %._crit_edge ], [ %39, %.preheader.preheader ]
  %.04749 = phi ptr [ %57, %._crit_edge ], [ %45, %.preheader.preheader ]
  %49 = icmp sgt i32 %48, 0
  br i1 %49, label %.lr.ph, label %._crit_edge

._crit_edge52.loopexit:                           ; preds = %._crit_edge
  %.pre63 = load i32, ptr %10, align 4, !tbaa !53
  br label %._crit_edge52

._crit_edge52:                                    ; preds = %.preheader.lr.ph, %._crit_edge52.loopexit, %19
  %50 = phi i32 [ %.pre63, %._crit_edge52.loopexit ], [ %20, %19 ], [ %20, %.preheader.lr.ph ]
  %indvars.iv.next60 = add nuw nsw i64 %indvars.iv59, 1
  %51 = sext i32 %50 to i64
  %52 = icmp slt i64 %indvars.iv.next60, %51
  br i1 %52, label %19, label %._crit_edge56, !llvm.loop !85

._crit_edge.loopexit:                             ; preds = %.lr.ph
  %.pre = load i32, ptr %27, align 4, !tbaa !48
  %.pre62 = load i32, ptr %28, align 4, !tbaa !48
  br label %._crit_edge

._crit_edge:                                      ; preds = %._crit_edge.loopexit, %.preheader
  %53 = phi i32 [ %.pre62, %._crit_edge.loopexit ], [ %46, %.preheader ]
  %54 = phi i32 [ %.pre, %._crit_edge.loopexit ], [ %47, %.preheader ]
  %55 = phi i32 [ %67, %._crit_edge.loopexit ], [ %48, %.preheader ]
  %56 = sext i32 %54 to i64
  %57 = getelementptr inbounds nuw i8, ptr %.04749, i64 %56
  %58 = sext i32 %53 to i64
  %59 = getelementptr inbounds nuw i8, ptr %.04650, i64 %58
  %60 = add nsw i32 %.04451, 1
  %exitcond.not = icmp eq i32 %60, %26
  br i1 %exitcond.not, label %._crit_edge52.loopexit, label %.preheader, !llvm.loop !86

.lr.ph:                                           ; preds = %.preheader, %.lr.ph
  %indvars.iv = phi i64 [ %indvars.iv.next, %.lr.ph ], [ 0, %.preheader ]
  %61 = getelementptr inbounds nuw i32, ptr %29, i64 %indvars.iv
  %62 = load i32, ptr %61, align 4, !tbaa !48
  %63 = sext i32 %62 to i64
  %64 = getelementptr inbounds i8, ptr %.04650, i64 %63
  %65 = load i8, ptr %64, align 1, !tbaa !69
  %66 = getelementptr inbounds nuw i8, ptr %.04749, i64 %indvars.iv
  store i8 %65, ptr %66, align 1, !tbaa !69
  %indvars.iv.next = add nuw nsw i64 %indvars.iv, 1
  %67 = load i32, ptr %31, align 4, !tbaa !48
  %68 = sext i32 %67 to i64
  %69 = icmp slt i64 %indvars.iv.next, %68
  br i1 %69, label %.lr.ph, label %._crit_edge.loopexit, !llvm.loop !87
}